; Function Attrs: mustprogress uwtable
define hidden void @_Z35pj_clear_gridshift_knowngrids_cachev() local_unnamed_addr #4 personality ptr @__gxx_personality_v0 {
  %1 = tail call noundef i32 @pthread_mutex_lock(ptr noundef nonnull align 8 dereferenceable(40) @_ZL6gMutex) #23
  %.not.i.i = icmp eq i32 %1, 0
  br i1 %.not.i.i, label %_ZNSt10lock_guardISt5mutexEC2ERS0_.exit, label %2

2:                                                ; preds = %0
  tail call void @_ZSt20__throw_system_errori(i32 noundef %1) #24
  unreachable

_ZNSt10lock_guardISt5mutexEC2ERS0_.exit:          ; preds = %0
  %3 = load ptr, ptr getelementptr inbounds nuw (i8, ptr @_ZL11gKnownGridsB5cxx11, i64 16), align 8, !tbaa !3
  invoke void @_ZNSt8_Rb_treeINSt7__cxx1112basic_stringIcSt11char_traitsIcESaIcEEESt4pairIKS5_bESt10_Select1stIS8_ESt4lessIS5_ESaIS8_EE8_M_eraseEPSt13_Rb_tree_nodeIS8_E(ptr noundef nonnull align 8 dereferenceable(48) @_ZL11gKnownGridsB5cxx11, ptr noundef %3)
          to label %_ZNSt3mapINSt7__cxx1112basic_stringIcSt11char_traitsIcESaIcEEEbSt4lessIS5_ESaISt4pairIKS5_bEEE5clearEv.exit unwind label %4

4:                                                ; preds = %_ZNSt10lock_guardISt5mutexEC2ERS0_.exit
  %5 = landingpad { ptr, i32 }
          catch ptr null
  %6 = extractvalue { ptr, i32 } %5, 0
  tail call void @__clang_call_terminate(ptr %6) #21
  unreachable

_ZNSt3mapINSt7__cxx1112basic_stringIcSt11char_traitsIcESaIcEEEbSt4lessIS5_ESaISt4pairIKS5_bEEE5clearEv.exit: ; preds = %_ZNSt10lock_guardISt5mutexEC2ERS0_.exit
  store ptr null, ptr getelementptr inbounds nuw (i8, ptr @_ZL11gKnownGridsB5cxx11, i64 16), align 8, !tbaa !3
  store ptr getelementptr inbounds nuw (i8, ptr @_ZL11gKnownGridsB5cxx11, i64 8), ptr getelementptr inbounds nuw (i8, ptr @_ZL11gKnownGridsB5cxx11, i64 24), align 8, !tbaa !48
  store ptr getelementptr inbounds nuw (i8, ptr @_ZL11gKnownGridsB5cxx11, i64 8), ptr getelementptr inbounds nuw (i8, ptr @_ZL11gKnownGridsB5cxx11, i64 32), align 8, !tbaa !49
  store i64 0, ptr getelementptr inbounds nuw (i8, ptr @_ZL11gKnownGridsB5cxx11, i64 40), align 8, !tbaa !137
  %7 = tail call noundef i32 @pthread_mutex_unlock(ptr noundef nonnull align 8 dereferenceable(40) @_ZL6gMutex) #23
  ret void
}